; ModuleID = 'source-C-CXX/59/399.c'
source_filename = "source-C-CXX/59/399.c"
target datalayout = "e-m:e-p270:32:32-p271:32:32-p272:64:64-i64:64-f80:128-n8:16:32:64-S128"
target triple = "x86_64-pc-linux-gnu"

@.str = private unnamed_addr constant [3 x i8] c"%d\00", align 1
@.str.1 = private unnamed_addr constant [6 x i8] c"empty\00", align 1
@.str.2 = private unnamed_addr constant [7 x i8] c"%d %d\0A\00", align 1

; Function Attrs: nofree norecurse nosync nounwind readnone sspstrong uwtable
define dso_local i32 @judge(i32 %0) local_unnamed_addr #0 {
  %2 = icmp sgt i32 %0, 2
  br i1 %2, label %5, label %10

3:                                                ; preds = %5
  %4 = icmp eq i32 %9, %0
  br i1 %4, label %10, label %5, !llvm.loop !5

5:                                                ; preds = %1, %3
  %6 = phi i32 [ %9, %3 ], [ 2, %1 ]
  %7 = srem i32 %0, %6
  %8 = icmp eq i32 %7, 0
  %9 = add nuw nsw i32 %6, 1
  br i1 %8, label %10, label %3

10:                                               ; preds = %3, %5, %1
  %11 = phi i32 [ 1, %1 ], [ 0, %5 ], [ 1, %3 ]
  ret i32 %11
}

; Function Attrs: argmemonly mustprogress nofree nosync nounwind willreturn
declare void @llvm.lifetime.start.p0i8(i64 immarg, i8* nocapture) #1

; Function Attrs: argmemonly mustprogress nofree nosync nounwind willreturn
declare void @llvm.lifetime.end.p0i8(i64 immarg, i8* nocapture) #1

; Function Attrs: nofree nounwind sspstrong uwtable
define dso_local void @main() local_unnamed_addr #2 {
  %1 = alloca i32, align 4
  %2 = bitcast i32* %1 to i8*
  call void @llvm.lifetime.start.p0i8(i64 4, i8* nonnull %2) #4
  %3 = call i32 (i8*, ...) @__isoc99_scanf(i8* getelementptr inbounds ([3 x i8], [3 x i8]* @.str, i64 0, i64 0), i32* nonnull %1)
  %4 = load i32, i32* %1, align 4, !tbaa !7
  %5 = icmp slt i32 %4, 5
  br i1 %5, label %6, label %8

6:                                                ; preds = %0
  %7 = call i32 (i8*, ...) @printf(i8* nonnull dereferenceable(1) getelementptr inbounds ([6 x i8], [6 x i8]* @.str.1, i64 0, i64 0))
  br label %34

8:                                                ; preds = %0, %29
  %9 = phi i32 [ %30, %29 ], [ %4, %0 ]
  %10 = phi i32 [ %32, %29 ], [ 5, %0 ]
  %11 = phi i32 [ %31, %29 ], [ 3, %0 ]
  br label %14

12:                                               ; preds = %14
  %13 = icmp eq i32 %18, %11
  br i1 %13, label %21, label %14, !llvm.loop !5

14:                                               ; preds = %8, %12
  %15 = phi i32 [ %18, %12 ], [ 2, %8 ]
  %16 = urem i32 %11, %15
  %17 = icmp eq i32 %16, 0
  %18 = add nuw nsw i32 %15, 1
  br i1 %17, label %29, label %12

19:                                               ; preds = %21
  %20 = icmp eq i32 %25, %10
  br i1 %20, label %26, label %21, !llvm.loop !5

21:                                               ; preds = %12, %19
  %22 = phi i32 [ %25, %19 ], [ 2, %12 ]
  %23 = urem i32 %10, %22
  %24 = icmp eq i32 %23, 0
  %25 = add nuw nsw i32 %22, 1
  br i1 %24, label %29, label %19

26:                                               ; preds = %19
  %27 = call i32 (i8*, ...) @printf(i8* nonnull dereferenceable(1) getelementptr inbounds ([7 x i8], [7 x i8]* @.str.2, i64 0, i64 0), i32 %11, i32 %10)
  %28 = load i32, i32* %1, align 4, !tbaa !7
  br label %29

29:                                               ; preds = %14, %21, %26
  %30 = phi i32 [ %28, %26 ], [ %9, %21 ], [ %9, %14 ]
  %31 = add nuw nsw i32 %11, 1
  %32 = add nuw nsw i32 %11, 3
  %33 = icmp sgt i32 %32, %30
  br i1 %33, label %34, label %8, !llvm.loop !11

34:                                               ; preds = %29, %6
  call void @llvm.lifetime.end.p0i8(i64 4, i8* nonnull %2) #4
  ret void
}

; Function Attrs: nofree nounwind
declare noundef i32 @__isoc99_scanf(i8* nocapture noundef readonly, ...) local_unnamed_addr #3

; Function Attrs: nofree nounwind
declare noundef i32 @printf(i8* nocapture noundef readonly, ...) local_unnamed_addr #3


!llvm.module.flags = !{!0, !1, !2, !3}
!llvm.ident = !{!4}

!0 = !{i32 1, !"wchar_size", i32 4}
!1 = !{i32 7, !"PIC Level", i32 2}
!2 = !{i32 7, !"PIE Level", i32 2}
!3 = !{i32 7, !"uwtable", i32 1}
!4 = !{!"clang version 13.0.0"}
!5 = distinct !{!5, !6}
!6 = !{!"llvm.loop.mustprogress"}
!7 = !{!8, !8, i64 0}
!8 = !{!"int", !9, i64 0}
!9 = !{!"omnipotent char", !10, i64 0}
!10 = !{!"Simple C/C++ TBAA"}
!11 = distinct !{!11, !6}
